target datalayout = "e-m:e-p270:32:32-p271:32:32-p272:64:64-i64:64-i128:128-f80:128-n8:16:32:64-S128"
target triple = "x86_64-pc-linux-gnu"

%struct._typeobject = type { %struct.PyVarObject, ptr, i64, i64, ptr, i64, ptr, ptr, ptr, ptr, ptr, ptr, ptr, ptr, ptr, ptr, ptr, ptr, ptr, i64, ptr, ptr, ptr, ptr, i64, ptr, ptr, ptr, ptr, ptr, ptr, ptr, ptr, ptr, i64, ptr, ptr, ptr, ptr, ptr, ptr, ptr, ptr, ptr, ptr, ptr, i32, ptr, ptr, i8, i16 }
%struct.PyVarObject = type { %struct._object, i64 }
%struct._object = type { %union.anon, ptr }
%union.anon = type { i64 }
%struct.Parser = type { ptr, ptr, i32, i32, i32, ptr, ptr, ptr, i32, i32, ptr, i32, ptr, i32, i32, i32, i32, i32, %struct.growable_comment_array, ptr, i32, i32, i32 }
%struct.growable_comment_array = type { ptr, i64, i64 }
%struct.Token = type { i32, ptr, i32, i32, i32, i32, i32, ptr, ptr }
%struct.tok_state = type { ptr, ptr, ptr, i32, ptr, ptr, ptr, ptr, i32, ptr, i32, i32, [100 x i32], i32, i32, ptr, ptr, i32, i32, i32, i32, i32, [200 x i8], [200 x i32], [200 x i32], ptr, [100 x i32], i32, i32, ptr, i32, ptr, ptr, ptr, ptr, ptr, ptr, ptr, ptr, i32, i32, ptr, i32, [150 x %struct._tokenizer_mode], i32, i32, i32, i32 }
%struct._tokenizer_mode = type { i32, i32, i32, i8, i32, i32, ptr, ptr, i32, i64, i64, i64, i64, ptr, i32, i32 }

@PyExc_SyntaxError = external global ptr, align 8
@_PyExc_IncompleteInputError = external global %struct._typeobject, align 8
@.str.8 = private unnamed_addr constant [17 x i8] c"incomplete input\00", align 1
@.str.9 = private unnamed_addr constant [61 x i8] c"multiple statements found while compiling a single statement\00", align 1

; Function Attrs: nounwind uwtable
define internal i32 @bad_single_statement(ptr noundef %0) #0 {
  %2 = alloca i32, align 4
  %3 = alloca ptr, align 8
  %4 = alloca ptr, align 8
  %5 = alloca i8, align 1
  %6 = alloca i32, align 4
  store ptr %0, ptr %3, align 8, !tbaa !4
  call void @llvm.lifetime.start.p0(i64 8, ptr %4) #10
  %7 = load ptr, ptr %3, align 8, !tbaa !4
  %8 = getelementptr inbounds nuw %struct.Parser, ptr %7, i32 0, i32 0
  %9 = load ptr, ptr %8, align 8, !tbaa !45
  %10 = getelementptr inbounds nuw %struct.tok_state, ptr %9, i32 0, i32 1
  %11 = load ptr, ptr %10, align 8, !tbaa !129
  store ptr %11, ptr %4, align 8, !tbaa !21
  call void @llvm.lifetime.start.p0(i64 1, ptr %5) #10
  %12 = load ptr, ptr %4, align 8, !tbaa !21
  %13 = load i8, ptr %12, align 1, !tbaa !23
  store i8 %13, ptr %5, align 1, !tbaa !23
  br label %14

14:                                               ; preds = %61, %1
  br label %15

15:                                               ; preds = %33, %14
  %16 = load i8, ptr %5, align 1, !tbaa !23
  %17 = sext i8 %16 to i32
  %18 = icmp eq i32 %17, 32
  br i1 %18, label %31, label %19

19:                                               ; preds = %15
  %20 = load i8, ptr %5, align 1, !tbaa !23
  %21 = sext i8 %20 to i32
  %22 = icmp eq i32 %21, 9
  br i1 %22, label %31, label %23

23:                                               ; preds = %19
  %24 = load i8, ptr %5, align 1, !tbaa !23
  %25 = sext i8 %24 to i32
  %26 = icmp eq i32 %25, 10
  br i1 %26, label %31, label %27

27:                                               ; preds = %23
  %28 = load i8, ptr %5, align 1, !tbaa !23
  %29 = sext i8 %28 to i32
  %30 = icmp eq i32 %29, 12
  br label %31

31:                                               ; preds = %27, %23, %19, %15
  %32 = phi i1 [ true, %23 ], [ true, %19 ], [ true, %15 ], [ %30, %27 ]
  br i1 %32, label %33, label %37

33:                                               ; preds = %31
  %34 = load ptr, ptr %4, align 8, !tbaa !21
  %35 = getelementptr i8, ptr %34, i32 1
  store ptr %35, ptr %4, align 8, !tbaa !21
  %36 = load i8, ptr %35, align 1, !tbaa !23
  store i8 %36, ptr %5, align 1, !tbaa !23
  br label %15, !llvm.loop !130

37:                                               ; preds = %31
  %38 = load i8, ptr %5, align 1, !tbaa !23
  %39 = icmp ne i8 %38, 0
  br i1 %39, label %41, label %40

40:                                               ; preds = %37
  store i32 0, ptr %2, align 4
  store i32 1, ptr %6, align 4
  br label %62

41:                                               ; preds = %37
  %42 = load i8, ptr %5, align 1, !tbaa !23
  %43 = sext i8 %42 to i32
  %44 = icmp ne i32 %43, 35
  br i1 %44, label %45, label %46

45:                                               ; preds = %41
  store i32 1, ptr %2, align 4
  store i32 1, ptr %6, align 4
  br label %62

46:                                               ; preds = %41
  br label %47

47:                                               ; preds = %57, %46
  %48 = load i8, ptr %5, align 1, !tbaa !23
  %49 = sext i8 %48 to i32
  %50 = icmp ne i32 %49, 0
  br i1 %50, label %51, label %55

51:                                               ; preds = %47
  %52 = load i8, ptr %5, align 1, !tbaa !23
  %53 = sext i8 %52 to i32
  %54 = icmp ne i32 %53, 10
  br label %55

55:                                               ; preds = %51, %47
  %56 = phi i1 [ false, %47 ], [ %54, %51 ]
  br i1 %56, label %57, label %61

57:                                               ; preds = %55
  %58 = load ptr, ptr %4, align 8, !tbaa !21
  %59 = getelementptr i8, ptr %58, i32 1
  store ptr %59, ptr %4, align 8, !tbaa !21
  %60 = load i8, ptr %59, align 1, !tbaa !23
  store i8 %60, ptr %5, align 1, !tbaa !23
  br label %47, !llvm.loop !131

61:                                               ; preds = %55
  br label %14

62:                                               ; preds = %45, %40
  call void @llvm.lifetime.end.p0(i64 1, ptr %5) #10
  call void @llvm.lifetime.end.p0(i64 8, ptr %4) #10
  %63 = load i32, ptr %2, align 4
  ret i32 %63
}

; Function Attrs: nounwind uwtable
define internal void @reset_parser_state_for_error_pass(ptr noundef %0) #0 {
  %2 = alloca ptr, align 8
  %3 = alloca i32, align 4
  store ptr %0, ptr %2, align 8, !tbaa !4
  call void @llvm.lifetime.start.p0(i64 4, ptr %3) #10
  store i32 0, ptr %3, align 4, !tbaa !18
  br label %4

4:                                                ; preds = %20, %1
  %5 = load i32, ptr %3, align 4, !tbaa !18
  %6 = load ptr, ptr %2, align 8, !tbaa !4
  %7 = getelementptr inbounds nuw %struct.Parser, ptr %6, i32 0, i32 3
  %8 = load i32, ptr %7, align 4, !tbaa !59
  %9 = icmp slt i32 %5, %8
  br i1 %9, label %11, label %10

10:                                               ; preds = %4
  call void @llvm.lifetime.end.p0(i64 4, ptr %3) #10
  br label %23

11:                                               ; preds = %4
  %12 = load ptr, ptr %2, align 8, !tbaa !4
  %13 = getelementptr inbounds nuw %struct.Parser, ptr %12, i32 0, i32 1
  %14 = load ptr, ptr %13, align 8, !tbaa !40
  %15 = load i32, ptr %3, align 4, !tbaa !18
  %16 = sext i32 %15 to i64
  %17 = getelementptr ptr, ptr %14, i64 %16
  %18 = load ptr, ptr %17, align 8, !tbaa !4
  %19 = getelementptr inbounds nuw %struct.Token, ptr %18, i32 0, i32 7
  store ptr null, ptr %19, align 8, !tbaa !41
  br label %20

20:                                               ; preds = %11
  %21 = load i32, ptr %3, align 4, !tbaa !18
  %22 = add i32 %21, 1
  store i32 %22, ptr %3, align 4, !tbaa !18
  br label %4, !llvm.loop !127

23:                                               ; preds = %10
  %24 = load ptr, ptr %2, align 8, !tbaa !4
  %25 = getelementptr inbounds nuw %struct.Parser, ptr %24, i32 0, i32 2
  store i32 0, ptr %25, align 8, !tbaa !38
  %26 = load ptr, ptr %2, align 8, !tbaa !4
  %27 = getelementptr inbounds nuw %struct.Parser, ptr %26, i32 0, i32 21
  store i32 1, ptr %27, align 4, !tbaa !124
  %28 = load ptr, ptr %2, align 8, !tbaa !4
  %29 = getelementptr inbounds nuw %struct.Parser, ptr %28, i32 0, i32 0
  %30 = load ptr, ptr %29, align 8, !tbaa !45
  %31 = getelementptr inbounds nuw %struct.tok_state, ptr %30, i32 0, i32 40
  store i32 1, ptr %31, align 4, !tbaa !128
  ret void
}

; Function Attrs: inlinehint nounwind uwtable
define internal i32 @_is_end_of_source(ptr noundef %0) #4 {
  %2 = alloca ptr, align 8
  %3 = alloca i32, align 4
  store ptr %0, ptr %2, align 8, !tbaa !4
  call void @llvm.lifetime.start.p0(i64 4, ptr %3) #10
  %4 = load ptr, ptr %2, align 8, !tbaa !4
  %5 = getelementptr inbounds nuw %struct.Parser, ptr %4, i32 0, i32 0
  %6 = load ptr, ptr %5, align 8, !tbaa !45
  %7 = getelementptr inbounds nuw %struct.tok_state, ptr %6, i32 0, i32 8
  %8 = load i32, ptr %7, align 8, !tbaa !85
  store i32 %8, ptr %3, align 4, !tbaa !18
  %9 = load i32, ptr %3, align 4, !tbaa !18
  %10 = icmp eq i32 %9, 11
  br i1 %10, label %17, label %11

11:                                               ; preds = %1
  %12 = load i32, ptr %3, align 4, !tbaa !18
  %13 = icmp eq i32 %12, 23
  br i1 %13, label %17, label %14

14:                                               ; preds = %11
  %15 = load i32, ptr %3, align 4, !tbaa !18
  %16 = icmp eq i32 %15, 24
  br label %17

17:                                               ; preds = %14, %11, %1
  %18 = phi i1 [ true, %11 ], [ true, %1 ], [ %16, %14 ]
  %19 = zext i1 %18 to i32
  call void @llvm.lifetime.end.p0(i64 4, ptr %3) #10
  ret i32 %19
}

; Function Attrs: nounwind uwtable
define hidden ptr @_PyPegen_run_parser(ptr noundef %0) #0 {
  %2 = alloca ptr, align 8
  %3 = alloca ptr, align 8
  %4 = alloca ptr, align 8
  %5 = alloca i32, align 4
  %6 = alloca ptr, align 8
  store ptr %0, ptr %3, align 8, !tbaa !4
  call void @llvm.lifetime.start.p0(i64 8, ptr %4) #10
  %7 = load ptr, ptr %3, align 8, !tbaa !4
  %8 = call ptr @_PyPegen_parse(ptr noundef %7)
  store ptr %8, ptr %4, align 8, !tbaa !4
  %9 = load ptr, ptr %4, align 8, !tbaa !4
  %10 = icmp eq ptr %9, null
  br i1 %10, label %11, label %48

11:                                               ; preds = %1
  %12 = load ptr, ptr %3, align 8, !tbaa !4
  %13 = getelementptr inbounds nuw %struct.Parser, ptr %12, i32 0, i32 16
  %14 = load i32, ptr %13, align 4, !tbaa !57
  %15 = and i32 %14, 256
  %16 = icmp ne i32 %15, 0
  br i1 %16, label %17, label %24

17:                                               ; preds = %11
  %18 = load ptr, ptr %3, align 8, !tbaa !4
  %19 = call i32 @_is_end_of_source(ptr noundef %18)
  %20 = icmp ne i32 %19, 0
  br i1 %20, label %21, label %24

21:                                               ; preds = %17
  call void @PyErr_Clear()
  %22 = load ptr, ptr %3, align 8, !tbaa !4
  %23 = call ptr (ptr, ptr, i32, ptr, ...) @_PyPegen_raise_error(ptr noundef %22, ptr noundef @_PyExc_IncompleteInputError, i32 noundef 0, ptr noundef @.str.8)
  store ptr %23, ptr %2, align 8
  store i32 1, ptr %5, align 4
  br label %67

24:                                               ; preds = %17, %11
  %25 = call ptr @PyErr_Occurred()
  %26 = icmp ne ptr %25, null
  br i1 %26, label %27, label %32

27:                                               ; preds = %24
  %28 = load ptr, ptr @PyExc_SyntaxError, align 8, !tbaa !19
  %29 = call i32 @PyErr_ExceptionMatches(ptr noundef %28)
  %30 = icmp ne i32 %29, 0
  br i1 %30, label %32, label %31

31:                                               ; preds = %27
  store ptr null, ptr %2, align 8
  store i32 1, ptr %5, align 4
  br label %67

32:                                               ; preds = %27, %24
  call void @llvm.lifetime.start.p0(i64 8, ptr %6) #10
  %33 = load ptr, ptr %3, align 8, !tbaa !4
  %34 = getelementptr inbounds nuw %struct.Parser, ptr %33, i32 0, i32 1
  %35 = load ptr, ptr %34, align 8, !tbaa !40
  %36 = load ptr, ptr %3, align 8, !tbaa !4
  %37 = getelementptr inbounds nuw %struct.Parser, ptr %36, i32 0, i32 3
  %38 = load i32, ptr %37, align 4, !tbaa !59
  %39 = sub i32 %38, 1
  %40 = sext i32 %39 to i64
  %41 = getelementptr ptr, ptr %35, i64 %40
  %42 = load ptr, ptr %41, align 8, !tbaa !4
  store ptr %42, ptr %6, align 8, !tbaa !4
  %43 = load ptr, ptr %3, align 8, !tbaa !4
  call void @reset_parser_state_for_error_pass(ptr noundef %43)
  %44 = load ptr, ptr %3, align 8, !tbaa !4
  %45 = call ptr @_PyPegen_parse(ptr noundef %44)
  %46 = load ptr, ptr %3, align 8, !tbaa !4
  %47 = load ptr, ptr %6, align 8, !tbaa !4
  call void @_Pypegen_set_syntax_error(ptr noundef %46, ptr noundef %47)
  store ptr null, ptr %2, align 8
  store i32 1, ptr %5, align 4
  call void @llvm.lifetime.end.p0(i64 8, ptr %6) #10
  br label %67

48:                                               ; preds = %1
  %49 = load ptr, ptr %3, align 8, !tbaa !4
  %50 = getelementptr inbounds nuw %struct.Parser, ptr %49, i32 0, i32 9
  %51 = load i32, ptr %50, align 4, !tbaa !54
  %52 = icmp eq i32 %51, 256
  br i1 %52, label %53, label %65

53:                                               ; preds = %48
  %54 = load ptr, ptr %3, align 8, !tbaa !4
  %55 = call i32 @bad_single_statement(ptr noundef %54)
  %56 = icmp ne i32 %55, 0
  br i1 %56, label %57, label %65

57:                                               ; preds = %53
  %58 = load ptr, ptr %3, align 8, !tbaa !4
  %59 = getelementptr inbounds nuw %struct.Parser, ptr %58, i32 0, i32 0
  %60 = load ptr, ptr %59, align 8, !tbaa !45
  %61 = getelementptr inbounds nuw %struct.tok_state, ptr %60, i32 0, i32 8
  store i32 27, ptr %61, align 8, !tbaa !85
  %62 = load ptr, ptr %3, align 8, !tbaa !4
  %63 = load ptr, ptr @PyExc_SyntaxError, align 8, !tbaa !19
  %64 = call ptr (ptr, ptr, i32, ptr, ...) @_PyPegen_raise_error(ptr noundef %62, ptr noundef %63, i32 noundef 0, ptr noundef @.str.9)
  store ptr %64, ptr %2, align 8
  store i32 1, ptr %5, align 4
  br label %67

65:                                               ; preds = %53, %48
  %66 = load ptr, ptr %4, align 8, !tbaa !4
  store ptr %66, ptr %2, align 8
  store i32 1, ptr %5, align 4
  br label %67

67:                                               ; preds = %65, %57, %32, %31, %21
  call void @llvm.lifetime.end.p0(i64 8, ptr %4) #10
  %68 = load ptr, ptr %2, align 8
  ret ptr %68
}