; Function Attrs: nounwind uwtable
define hidden ptr @_PyPegen_run_parser(ptr noundef %0) local_unnamed_addr #1 {
  %2 = tail call ptr @_PyPegen_parse(ptr noundef %0) #13
  %3 = icmp eq ptr %2, null
  br i1 %3, label %4, label %35

4:                                                ; preds = %1
  %5 = getelementptr inbounds nuw i8, ptr %0, i64 100
  %6 = load i32, ptr %5, align 4, !tbaa !60
  %7 = and i32 %6, 256
  %.not18 = icmp eq i32 %7, 0
  br i1 %.not18, label %11, label %8

8:                                                ; preds = %4
  %.val = load ptr, ptr %0, align 8, !tbaa !42
  %9 = getelementptr i8, ptr %.val, i64 64
  %.val.val = load i32, ptr %9, align 8, !tbaa !86
  switch i32 %.val.val, label %11 [
    i32 23, label %_is_end_of_source.exit.thread
    i32 11, label %_is_end_of_source.exit.thread
    i32 24, label %_is_end_of_source.exit.thread
  ]

_is_end_of_source.exit.thread:                    ; preds = %8, %8, %8
  tail call void @PyErr_Clear() #13
  %10 = tail call ptr (ptr, ptr, i32, ptr, ...) @_PyPegen_raise_error(ptr noundef nonnull %0, ptr noundef nonnull @_PyExc_IncompleteInputError, i32 noundef 0, ptr noundef nonnull @.str.8) #13
  br label %bad_single_statement.exit.thread

11:                                               ; preds = %8, %4
  %12 = tail call ptr @PyErr_Occurred() #13
  %.not20 = icmp eq ptr %12, null
  br i1 %.not20, label %16, label %13

13:                                               ; preds = %11
  %14 = load ptr, ptr @PyExc_SyntaxError, align 8, !tbaa !19
  %15 = tail call i32 @PyErr_ExceptionMatches(ptr noundef %14) #13
  %.not21 = icmp eq i32 %15, 0
  br i1 %.not21, label %bad_single_statement.exit.thread, label %16

16:                                               ; preds = %13, %11
  %17 = getelementptr inbounds nuw i8, ptr %0, i64 8
  %18 = load ptr, ptr %17, align 8, !tbaa !35
  %19 = getelementptr inbounds nuw i8, ptr %0, i64 20
  %20 = load i32, ptr %19, align 4, !tbaa !62
  %21 = add i32 %20, -1
  %22 = sext i32 %21 to i64
  %23 = getelementptr ptr, ptr %18, i64 %22
  %24 = load ptr, ptr %23, align 8, !tbaa !36
  %25 = icmp sgt i32 %20, 0
  br i1 %25, label %.lr.ph.i, label %reset_parser_state_for_error_pass.exit

.lr.ph.i:                                         ; preds = %16
  %wide.trip.count.i = zext nneg i32 %20 to i64
  br label %26

26:                                               ; preds = %26, %.lr.ph.i
  %indvars.iv.i = phi i64 [ 0, %.lr.ph.i ], [ %indvars.iv.next.i, %26 ]
  %27 = getelementptr ptr, ptr %18, i64 %indvars.iv.i
  %28 = load ptr, ptr %27, align 8, !tbaa !36
  %29 = getelementptr inbounds nuw i8, ptr %28, i64 40
  store ptr null, ptr %29, align 8, !tbaa !37
  %indvars.iv.next.i = add nuw nsw i64 %indvars.iv.i, 1
  %exitcond.not.i = icmp eq i64 %indvars.iv.next.i, %wide.trip.count.i
  br i1 %exitcond.not.i, label %reset_parser_state_for_error_pass.exit, label %26, !llvm.loop !118

reset_parser_state_for_error_pass.exit:           ; preds = %26, %16
  %30 = getelementptr inbounds nuw i8, ptr %0, i64 16
  store i32 0, ptr %30, align 8, !tbaa !33
  %31 = getelementptr inbounds nuw i8, ptr %0, i64 148
  store i32 1, ptr %31, align 4, !tbaa !119
  %32 = load ptr, ptr %0, align 8, !tbaa !42
  %33 = getelementptr inbounds nuw i8, ptr %32, i64 2836
  store i32 1, ptr %33, align 4, !tbaa !120
  %34 = tail call ptr @_PyPegen_parse(ptr noundef nonnull %0) #13
  tail call void @_Pypegen_set_syntax_error(ptr noundef nonnull %0, ptr noundef %24) #13
  br label %bad_single_statement.exit.thread

35:                                               ; preds = %1
  %36 = getelementptr inbounds nuw i8, ptr %0, i64 60
  %37 = load i32, ptr %36, align 4, !tbaa !57
  %38 = icmp eq i32 %37, 256
  br i1 %38, label %39, label %bad_single_statement.exit.thread

39:                                               ; preds = %35
  %.val22 = load ptr, ptr %0, align 8, !tbaa !42
  %40 = getelementptr i8, ptr %.val22, i64 8
  %.val22.val = load ptr, ptr %40, align 8, !tbaa !121
  %41 = load i8, ptr %.val22.val, align 1, !tbaa !18
  br label %.loopexit.i

.loopexit.i:                                      ; preds = %.loopexit.i.backedge, %39
  %.121.i = phi ptr [ %.val22.val, %39 ], [ %.121.i.be, %.loopexit.i.backedge ]
  %.1.i = phi i8 [ %41, %39 ], [ %.1.i.be, %.loopexit.i.backedge ]
  switch i8 %.1.i, label %bad_single_statement.exit [
    i8 32, label %.critedge.i
    i8 12, label %.critedge.i
    i8 10, label %.critedge.i
    i8 9, label %.critedge.i
    i8 0, label %bad_single_statement.exit.thread
    i8 35, label %.preheader.i
  ]

.critedge.i:                                      ; preds = %.loopexit.i, %.loopexit.i, %.loopexit.i, %.loopexit.i
  %42 = getelementptr i8, ptr %.121.i, i64 1
  %43 = load i8, ptr %42, align 1, !tbaa !18
  br label %.loopexit.i.backedge

.loopexit.i.backedge:                             ; preds = %.preheader.i, %.preheader.i, %.critedge.i
  %.121.i.be = phi ptr [ %42, %.critedge.i ], [ %.222.i, %.preheader.i ], [ %.222.i, %.preheader.i ]
  %.1.i.be = phi i8 [ %43, %.critedge.i ], [ %.2.i, %.preheader.i ], [ %.2.i, %.preheader.i ]
  br label %.loopexit.i, !llvm.loop !122

.preheader.i:                                     ; preds = %.loopexit.i, %44
  %.222.i = phi ptr [ %45, %44 ], [ %.121.i, %.loopexit.i ]
  %.2.i = phi i8 [ %46, %44 ], [ %.1.i, %.loopexit.i ]
  switch i8 %.2.i, label %44 [
    i8 10, label %.loopexit.i.backedge
    i8 0, label %.loopexit.i.backedge
  ]

44:                                               ; preds = %.preheader.i
  %45 = getelementptr i8, ptr %.222.i, i64 1
  %46 = load i8, ptr %45, align 1, !tbaa !18
  br label %.preheader.i, !llvm.loop !123

bad_single_statement.exit:                        ; preds = %.loopexit.i
  %47 = getelementptr inbounds nuw i8, ptr %.val22, i64 64
  store i32 27, ptr %47, align 8, !tbaa !86
  %48 = load ptr, ptr @PyExc_SyntaxError, align 8, !tbaa !19
  %49 = tail call ptr (ptr, ptr, i32, ptr, ...) @_PyPegen_raise_error(ptr noundef nonnull %0, ptr noundef %48, i32 noundef 0, ptr noundef nonnull @.str.9) #13
  br label %bad_single_statement.exit.thread

bad_single_statement.exit.thread:                 ; preds = %.loopexit.i, %35, %13, %bad_single_statement.exit, %reset_parser_state_for_error_pass.exit, %_is_end_of_source.exit.thread
  %.0 = phi ptr [ %10, %_is_end_of_source.exit.thread ], [ null, %reset_parser_state_for_error_pass.exit ], [ %49, %bad_single_statement.exit ], [ null, %13 ], [ %2, %35 ], [ %2, %.loopexit.i ]
  ret ptr %.0
}